target datalayout = "e-m:e-p270:32:32-p271:32:32-p272:64:64-i64:64-i128:128-f80:128-n8:16:32:64-S128"
target triple = "x86_64-pc-linux-gnu"

%struct.ImVec2 = type { float, float }
%struct.ImGuiInputTextState = type <{ ptr, ptr, i32, i32, %struct.ImVector.34, %struct.ImVector.34, %struct.ImVector.34, i32, %struct.ImVec2, float, i8, i8, i8, i8, i32, i8, [3 x i8], i32, i32, [4 x i8] }>
%struct.ImVector.34 = type { i32, i32, ptr }
%"struct.ImStb::STB_TexteditState" = type { i32, i32, i32, i8, i32, i8, i8, i8, i8, i8, i8, i8, float, %"struct.ImStb::StbUndoState" }
%"struct.ImStb::StbUndoState" = type { [99 x %"struct.ImStb::StbUndoRecord"], [999 x i8], i16, i16, i32, i32 }
%"struct.ImStb::StbUndoRecord" = type { i32, i32, i32, i32 }

; Function Attrs: mustprogress nounwind uwtable
define internal noundef i32 @_ZN5ImStbL22STB_TEXTEDIT_STRINGLENEPK19ImGuiInputTextState(ptr noundef %0) #4 {
  %2 = alloca ptr, align 8
  store ptr %0, ptr %2, align 8, !tbaa !420
  %3 = load ptr, ptr %2, align 8, !tbaa !420
  %4 = getelementptr inbounds nuw %struct.ImGuiInputTextState, ptr %3, i32 0, i32 3
  %5 = load i32, ptr %4, align 4, !tbaa !431
  ret i32 %5
}

; Function Attrs: mustprogress nounwind uwtable
define internal void @_ZN5ImStbL18stb_textedit_clampEP19ImGuiInputTextStatePNS_17STB_TexteditStateE(ptr noundef %0, ptr noundef %1) #4 {
  %3 = alloca ptr, align 8
  %4 = alloca ptr, align 8
  %5 = alloca i32, align 4
  store ptr %0, ptr %3, align 8, !tbaa !420
  store ptr %1, ptr %4, align 8, !tbaa !510
  call void @llvm.lifetime.start.p0(i64 4, ptr %5) #17
  %6 = load ptr, ptr %3, align 8, !tbaa !420
  %7 = call noundef i32 @_ZN5ImStbL22STB_TEXTEDIT_STRINGLENEPK19ImGuiInputTextState(ptr noundef %6)
  store i32 %7, ptr %5, align 4, !tbaa !9
  %8 = load ptr, ptr %4, align 8, !tbaa !510
  %9 = getelementptr inbounds nuw %"struct.ImStb::STB_TexteditState", ptr %8, i32 0, i32 1
  %10 = load i32, ptr %9, align 4, !tbaa !434
  %11 = load ptr, ptr %4, align 8, !tbaa !510
  %12 = getelementptr inbounds nuw %"struct.ImStb::STB_TexteditState", ptr %11, i32 0, i32 2
  %13 = load i32, ptr %12, align 4, !tbaa !436
  %14 = icmp ne i32 %10, %13
  br i1 %14, label %15, label %50

15:                                               ; preds = %2
  %16 = load ptr, ptr %4, align 8, !tbaa !510
  %17 = getelementptr inbounds nuw %"struct.ImStb::STB_TexteditState", ptr %16, i32 0, i32 1
  %18 = load i32, ptr %17, align 4, !tbaa !434
  %19 = load i32, ptr %5, align 4, !tbaa !9
  %20 = icmp sgt i32 %18, %19
  br i1 %20, label %21, label %25

21:                                               ; preds = %15
  %22 = load i32, ptr %5, align 4, !tbaa !9
  %23 = load ptr, ptr %4, align 8, !tbaa !510
  %24 = getelementptr inbounds nuw %"struct.ImStb::STB_TexteditState", ptr %23, i32 0, i32 1
  store i32 %22, ptr %24, align 4, !tbaa !434
  br label %25

25:                                               ; preds = %21, %15
  %26 = load ptr, ptr %4, align 8, !tbaa !510
  %27 = getelementptr inbounds nuw %"struct.ImStb::STB_TexteditState", ptr %26, i32 0, i32 2
  %28 = load i32, ptr %27, align 4, !tbaa !436
  %29 = load i32, ptr %5, align 4, !tbaa !9
  %30 = icmp sgt i32 %28, %29
  br i1 %30, label %31, label %35

31:                                               ; preds = %25
  %32 = load i32, ptr %5, align 4, !tbaa !9
  %33 = load ptr, ptr %4, align 8, !tbaa !510
  %34 = getelementptr inbounds nuw %"struct.ImStb::STB_TexteditState", ptr %33, i32 0, i32 2
  store i32 %32, ptr %34, align 4, !tbaa !436
  br label %35

35:                                               ; preds = %31, %25
  %36 = load ptr, ptr %4, align 8, !tbaa !510
  %37 = getelementptr inbounds nuw %"struct.ImStb::STB_TexteditState", ptr %36, i32 0, i32 1
  %38 = load i32, ptr %37, align 4, !tbaa !434
  %39 = load ptr, ptr %4, align 8, !tbaa !510
  %40 = getelementptr inbounds nuw %"struct.ImStb::STB_TexteditState", ptr %39, i32 0, i32 2
  %41 = load i32, ptr %40, align 4, !tbaa !436
  %42 = icmp eq i32 %38, %41
  br i1 %42, label %43, label %49

43:                                               ; preds = %35
  %44 = load ptr, ptr %4, align 8, !tbaa !510
  %45 = getelementptr inbounds nuw %"struct.ImStb::STB_TexteditState", ptr %44, i32 0, i32 1
  %46 = load i32, ptr %45, align 4, !tbaa !434
  %47 = load ptr, ptr %4, align 8, !tbaa !510
  %48 = getelementptr inbounds nuw %"struct.ImStb::STB_TexteditState", ptr %47, i32 0, i32 0
  store i32 %46, ptr %48, align 4, !tbaa !437
  br label %49

49:                                               ; preds = %43, %35
  br label %50

50:                                               ; preds = %49, %2
  %51 = load ptr, ptr %4, align 8, !tbaa !510
  %52 = getelementptr inbounds nuw %"struct.ImStb::STB_TexteditState", ptr %51, i32 0, i32 0
  %53 = load i32, ptr %52, align 4, !tbaa !437
  %54 = load i32, ptr %5, align 4, !tbaa !9
  %55 = icmp sgt i32 %53, %54
  br i1 %55, label %56, label %60

56:                                               ; preds = %50
  %57 = load i32, ptr %5, align 4, !tbaa !9
  %58 = load ptr, ptr %4, align 8, !tbaa !510
  %59 = getelementptr inbounds nuw %"struct.ImStb::STB_TexteditState", ptr %58, i32 0, i32 0
  store i32 %57, ptr %59, align 4, !tbaa !437
  br label %60

60:                                               ; preds = %56, %50
  call void @llvm.lifetime.end.p0(i64 4, ptr %5) #17
  ret void
}