; Function Attrs: mustprogress nofree norecurse nosync nounwind willreturn memory(argmem: readwrite) uwtable
define internal fastcc void @_ZN5ImStbL18stb_textedit_clampEP19ImGuiInputTextStatePNS_17STB_TexteditStateE(i32 %.20.val, ptr noundef captures(none) %0) unnamed_addr #15 {
  %2 = getelementptr inbounds nuw i8, ptr %0, i64 4
  %3 = load i32, ptr %2, align 4, !tbaa !387
  %4 = getelementptr inbounds nuw i8, ptr %0, i64 8
  %5 = load i32, ptr %4, align 4, !tbaa !388
  %.not = icmp eq i32 %3, %5
  br i1 %.not, label %17, label %6

6:                                                ; preds = %1
  %7 = icmp sgt i32 %3, %.20.val
  br i1 %7, label %8, label %9

8:                                                ; preds = %6
  store i32 %.20.val, ptr %2, align 4, !tbaa !387
  br label %9

9:                                                ; preds = %8, %6
  %10 = phi i32 [ %.20.val, %8 ], [ %3, %6 ]
  %11 = icmp sgt i32 %5, %.20.val
  br i1 %11, label %12, label %13

12:                                               ; preds = %9
  store i32 %.20.val, ptr %4, align 4, !tbaa !388
  br label %13

13:                                               ; preds = %12, %9
  %14 = phi i32 [ %.20.val, %12 ], [ %5, %9 ]
  %15 = icmp eq i32 %10, %14
  br i1 %15, label %16, label %17

16:                                               ; preds = %13
  store i32 %10, ptr %0, align 4, !tbaa !386
  br label %17

17:                                               ; preds = %13, %16, %1
  %18 = load i32, ptr %0, align 4, !tbaa !386
  %19 = icmp sgt i32 %18, %.20.val
  br i1 %19, label %20, label %21

20:                                               ; preds = %17
  store i32 %.20.val, ptr %0, align 4, !tbaa !386
  br label %21

21:                                               ; preds = %20, %17
  ret void
}